target datalayout = "e-m:e-p270:32:32-p271:32:32-p272:64:64-i64:64-i128:128-f80:128-n8:16:32:64-S128"
target triple = "x86_64-pc-linux-gnu"

%"class.std::vector" = type { %"struct.std::_Vector_base" }
%"struct.std::_Vector_base" = type { %"struct.std::_Vector_base<const Luau::Type *, std::allocator<const Luau::Type *>>::_Vector_impl" }
%"struct.std::_Vector_base<const Luau::Type *, std::allocator<const Luau::Type *>>::_Vector_impl" = type { %"struct.std::_Vector_base<const Luau::Type *, std::allocator<const Luau::Type *>>::_Vector_impl_data" }
%"struct.std::_Vector_base<const Luau::Type *, std::allocator<const Luau::Type *>>::_Vector_impl_data" = type { ptr, ptr, ptr }
%"class.std::vector.23" = type { %"struct.std::_Vector_base.24" }
%"struct.std::_Vector_base.24" = type { %"struct.std::_Vector_base<const Luau::TypePackVar *, std::allocator<const Luau::TypePackVar *>>::_Vector_impl" }
%"struct.std::_Vector_base<const Luau::TypePackVar *, std::allocator<const Luau::TypePackVar *>>::_Vector_impl" = type { %"struct.std::_Vector_base<const Luau::TypePackVar *, std::allocator<const Luau::TypePackVar *>>::_Vector_impl_data" }
%"struct.std::_Vector_base<const Luau::TypePackVar *, std::allocator<const Luau::TypePackVar *>>::_Vector_impl_data" = type { ptr, ptr, ptr }
%"struct.Luau::Instantiation2" = type { %"struct.Luau::Substitution", %"class.Luau::DenseHashMap.56", %"class.Luau::DenseHashMap.59" }
%"struct.Luau::Substitution" = type { %"struct.Luau::Tarjan", ptr, %"class.Luau::DenseHashMap.56", %"class.Luau::DenseHashMap.59", %"class.Luau::DenseHashSet", %"class.Luau::DenseHashSet.64", %"class.Luau::DenseHashSet", %"class.Luau::DenseHashSet.64" }
%"struct.Luau::Tarjan" = type { ptr, %"class.Luau::DenseHashMap", %"class.Luau::DenseHashMap.38", %"class.std::vector.41", %"class.std::vector.46", i32, i32, ptr, %"class.std::vector", %"class.std::vector.23", %"class.std::vector.51" }
%"class.Luau::DenseHashMap" = type { %"class.Luau::detail::DenseHashTable" }
%"class.Luau::detail::DenseHashTable" = type <{ ptr, i64, i64, ptr, [8 x i8] }>
%"class.Luau::DenseHashMap.38" = type { %"class.Luau::detail::DenseHashTable.39" }
%"class.Luau::detail::DenseHashTable.39" = type <{ ptr, i64, i64, ptr, [8 x i8] }>
%"class.std::vector.41" = type { %"struct.std::_Vector_base.42" }
%"struct.std::_Vector_base.42" = type { %"struct.std::_Vector_base<Luau::TarjanNode, std::allocator<Luau::TarjanNode>>::_Vector_impl" }
%"struct.std::_Vector_base<Luau::TarjanNode, std::allocator<Luau::TarjanNode>>::_Vector_impl" = type { %"struct.std::_Vector_base<Luau::TarjanNode, std::allocator<Luau::TarjanNode>>::_Vector_impl_data" }
%"struct.std::_Vector_base<Luau::TarjanNode, std::allocator<Luau::TarjanNode>>::_Vector_impl_data" = type { ptr, ptr, ptr }
%"class.std::vector.46" = type { %"struct.std::_Vector_base.47" }
%"struct.std::_Vector_base.47" = type { %"struct.std::_Vector_base<int, std::allocator<int>>::_Vector_impl" }
%"struct.std::_Vector_base<int, std::allocator<int>>::_Vector_impl" = type { %"struct.std::_Vector_base<int, std::allocator<int>>::_Vector_impl_data" }
%"struct.std::_Vector_base<int, std::allocator<int>>::_Vector_impl_data" = type { ptr, ptr, ptr }
%"class.std::vector.51" = type { %"struct.std::_Vector_base.52" }
%"struct.std::_Vector_base.52" = type { %"struct.std::_Vector_base<Luau::TarjanWorklistVertex, std::allocator<Luau::TarjanWorklistVertex>>::_Vector_impl" }
%"struct.std::_Vector_base<Luau::TarjanWorklistVertex, std::allocator<Luau::TarjanWorklistVertex>>::_Vector_impl" = type { %"struct.std::_Vector_base<Luau::TarjanWorklistVertex, std::allocator<Luau::TarjanWorklistVertex>>::_Vector_impl_data" }
%"struct.std::_Vector_base<Luau::TarjanWorklistVertex, std::allocator<Luau::TarjanWorklistVertex>>::_Vector_impl_data" = type { ptr, ptr, ptr }
%"class.Luau::DenseHashSet" = type { %"class.Luau::detail::DenseHashTable.62" }
%"class.Luau::detail::DenseHashTable.62" = type <{ ptr, i64, i64, ptr, [8 x i8] }>
%"class.Luau::DenseHashSet.64" = type { %"class.Luau::detail::DenseHashTable.65" }
%"class.Luau::detail::DenseHashTable.65" = type <{ ptr, i64, i64, ptr, [8 x i8] }>
%"class.Luau::DenseHashMap.56" = type { %"class.Luau::detail::DenseHashTable.57" }
%"class.Luau::detail::DenseHashTable.57" = type <{ ptr, i64, i64, ptr, [8 x i8] }>
%"class.Luau::DenseHashMap.59" = type { %"class.Luau::detail::DenseHashTable.60" }
%"class.Luau::detail::DenseHashTable.60" = type <{ ptr, i64, i64, ptr, [8 x i8] }>

; Function Attrs: mustprogress uwtable
define dso_local noundef ptr @_ZN4Luau14Instantiation25cleanEPKNS_11TypePackVarE(ptr noundef nonnull align 8 dereferenceable(552) %0, ptr noundef %1) unnamed_addr #2 align 2 {
  %3 = alloca ptr, align 8
  %4 = alloca ptr, align 8
  %5 = alloca ptr, align 8
  store ptr %0, ptr %3, align 8, !tbaa !8
  store ptr %1, ptr %4, align 8, !tbaa !58
  %6 = load ptr, ptr %3, align 8
  call void @llvm.lifetime.start.p0(i64 8, ptr %5) #10
  %7 = getelementptr inbounds nuw %"struct.Luau::Instantiation2", ptr %6, i32 0, i32 2
  %8 = call noundef nonnull align 8 dereferenceable(8) ptr @_ZN4Luau12DenseHashMapIPKNS_11TypePackVarES3_NS_16DenseHashPointerESt8equal_toIS3_EEixERKS3_(ptr noundef nonnull align 8 dereferenceable(40) %7, ptr noundef nonnull align 8 dereferenceable(8) %4)
  %9 = load ptr, ptr %8, align 8, !tbaa !58
  store ptr %9, ptr %5, align 8, !tbaa !58
  %10 = load ptr, ptr %5, align 8, !tbaa !58
  call void @_ZN4Luau12Substitution16dontTraverseIntoEPKNS_11TypePackVarE(ptr noundef nonnull align 8 dereferenceable(472) %6, ptr noundef %10)
  %11 = load ptr, ptr %5, align 8, !tbaa !58
  call void @llvm.lifetime.end.p0(i64 8, ptr %5) #10
  ret ptr %11
}