; Function Attrs: mustprogress uwtable
define dso_local noundef ptr @_ZN4Luau14Instantiation25cleanEPKNS_11TypePackVarE(ptr noundef nonnull align 8 dereferenceable(552) %0, ptr noundef %1) unnamed_addr #3 align 2 {
  %3 = alloca ptr, align 8
  store ptr %1, ptr %3, align 8, !tbaa !66
  %4 = getelementptr inbounds nuw i8, ptr %0, i64 512
  %5 = call noundef nonnull align 8 dereferenceable(8) ptr @_ZN4Luau12DenseHashMapIPKNS_11TypePackVarES3_NS_16DenseHashPointerESt8equal_toIS3_EEixERKS3_(ptr noundef nonnull align 8 dereferenceable(40) %4, ptr noundef nonnull align 8 dereferenceable(8) %3)
  %6 = load ptr, ptr %5, align 8, !tbaa !66
  call void @_ZN4Luau12Substitution16dontTraverseIntoEPKNS_11TypePackVarE(ptr noundef nonnull align 8 dereferenceable(472) %0, ptr noundef %6)
  ret ptr %6
}